target datalayout = "e-m:e-p270:32:32-p271:32:32-p272:64:64-i64:64-i128:128-f80:128-n8:16:32:64-S128"
target triple = "x86_64-pc-linux-gnu"

%struct.lxb_html_tree = type { ptr, ptr, ptr, ptr, ptr, ptr, ptr, %struct.lxb_html_tree_pending_table_t, ptr, i8, i8, i8, i8, i8, i8, ptr, ptr, ptr, i32, i64 }
%struct.lxb_html_tree_pending_table_t = type { ptr, i8 }
%struct.lexbor_array_t = type { ptr, i64, i64 }
%struct.lxb_dom_node = type { %struct.lxb_dom_event_target, i64, i64, i64, ptr, ptr, ptr, ptr, ptr, ptr, ptr, i32, i64 }
%struct.lxb_dom_event_target = type { ptr }

; Function Attrs: inlinehint nounwind uwtable
define internal zeroext i1 @lxb_html_tree_node_is(ptr noundef %0, i64 noundef %1) #3 {
  %3 = alloca ptr, align 8
  %4 = alloca i64, align 8
  store ptr %0, ptr %3, align 8, !tbaa !37
  store i64 %1, ptr %4, align 8, !tbaa !50
  %5 = load ptr, ptr %3, align 8, !tbaa !37
  %6 = getelementptr inbounds nuw %struct.lxb_dom_node, ptr %5, i32 0, i32 1
  %7 = load i64, ptr %6, align 8, !tbaa !51
  %8 = load i64, ptr %4, align 8, !tbaa !50
  %9 = icmp eq i64 %7, %8
  br i1 %9, label %10, label %15

10:                                               ; preds = %2
  %11 = load ptr, ptr %3, align 8, !tbaa !37
  %12 = getelementptr inbounds nuw %struct.lxb_dom_node, ptr %11, i32 0, i32 3
  %13 = load i64, ptr %12, align 8, !tbaa !55
  %14 = icmp eq i64 %13, 2
  br label %15

15:                                               ; preds = %10, %2
  %16 = phi i1 [ false, %2 ], [ %14, %10 ]
  ret i1 %16
}

; Function Attrs: inlinehint nounwind uwtable
define internal ptr @lxb_html_tree_current_node(ptr noundef %0) #3 {
  %2 = alloca ptr, align 8
  %3 = alloca ptr, align 8
  store ptr %0, ptr %3, align 8, !tbaa !4
  %4 = load ptr, ptr %3, align 8, !tbaa !4
  %5 = getelementptr inbounds nuw %struct.lxb_html_tree, ptr %4, i32 0, i32 4
  %6 = load ptr, ptr %5, align 8, !tbaa !44
  %7 = getelementptr inbounds nuw %struct.lexbor_array_t, ptr %6, i32 0, i32 2
  %8 = load i64, ptr %7, align 8, !tbaa !49
  %9 = icmp eq i64 %8, 0
  br i1 %9, label %10, label %11

10:                                               ; preds = %1
  store ptr null, ptr %2, align 8
  br label %25

11:                                               ; preds = %1
  %12 = load ptr, ptr %3, align 8, !tbaa !4
  %13 = getelementptr inbounds nuw %struct.lxb_html_tree, ptr %12, i32 0, i32 4
  %14 = load ptr, ptr %13, align 8, !tbaa !44
  %15 = getelementptr inbounds nuw %struct.lexbor_array_t, ptr %14, i32 0, i32 0
  %16 = load ptr, ptr %15, align 8, !tbaa !45
  %17 = load ptr, ptr %3, align 8, !tbaa !4
  %18 = getelementptr inbounds nuw %struct.lxb_html_tree, ptr %17, i32 0, i32 4
  %19 = load ptr, ptr %18, align 8, !tbaa !44
  %20 = getelementptr inbounds nuw %struct.lexbor_array_t, ptr %19, i32 0, i32 2
  %21 = load i64, ptr %20, align 8, !tbaa !49
  %22 = sub i64 %21, 1
  %23 = getelementptr inbounds nuw ptr, ptr %16, i64 %22
  %24 = load ptr, ptr %23, align 8, !tbaa !9
  store ptr %24, ptr %2, align 8
  br label %25

25:                                               ; preds = %11, %10
  %26 = load ptr, ptr %2, align 8
  ret ptr %26
}

; Function Attrs: inlinehint nounwind uwtable
define internal zeroext i1 @lxb_html_tree_insertion_mode_in_body_form_closed(ptr noundef %0, ptr noundef %1) #3 {
  %3 = alloca i1, align 1
  %4 = alloca ptr, align 8
  %5 = alloca ptr, align 8
  %6 = alloca ptr, align 8
  %7 = alloca ptr, align 8
  %8 = alloca i32, align 4
  store ptr %0, ptr %4, align 8, !tbaa !4
  store ptr %1, ptr %5, align 8, !tbaa !9
  call void @llvm.lifetime.start.p0(i64 8, ptr %6) #5
  call void @llvm.lifetime.start.p0(i64 8, ptr %7) #5
  %9 = load ptr, ptr %4, align 8, !tbaa !4
  %10 = call ptr @lxb_html_tree_open_elements_find_reverse(ptr noundef %9, i64 noundef 179, i64 noundef 2, ptr noundef null)
  store ptr %10, ptr %6, align 8, !tbaa !37
  %11 = load ptr, ptr %6, align 8, !tbaa !37
  %12 = icmp eq ptr %11, null
  br i1 %12, label %13, label %46

13:                                               ; preds = %2
  %14 = load ptr, ptr %4, align 8, !tbaa !4
  %15 = getelementptr inbounds nuw %struct.lxb_html_tree, ptr %14, i32 0, i32 3
  %16 = load ptr, ptr %15, align 8, !tbaa !39
  store ptr %16, ptr %6, align 8, !tbaa !37
  %17 = load ptr, ptr %4, align 8, !tbaa !4
  %18 = getelementptr inbounds nuw %struct.lxb_html_tree, ptr %17, i32 0, i32 3
  store ptr null, ptr %18, align 8, !tbaa !39
  %19 = load ptr, ptr %6, align 8, !tbaa !37
  %20 = icmp eq ptr %19, null
  br i1 %20, label %21, label %24

21:                                               ; preds = %13
  %22 = load ptr, ptr %4, align 8, !tbaa !4
  %23 = load ptr, ptr %5, align 8, !tbaa !9
  call void @lxb_html_tree_parse_error(ptr noundef %22, ptr noundef %23, i32 noundef 1)
  store i1 true, ptr %3, align 1
  store i32 1, ptr %8, align 4
  br label %67

24:                                               ; preds = %13
  %25 = load ptr, ptr %4, align 8, !tbaa !4
  %26 = load ptr, ptr %6, align 8, !tbaa !37
  %27 = call ptr @lxb_html_tree_element_in_scope_by_node(ptr noundef %25, ptr noundef %26, i32 noundef 8)
  store ptr %27, ptr %6, align 8, !tbaa !37
  %28 = load ptr, ptr %6, align 8, !tbaa !37
  %29 = icmp eq ptr %28, null
  br i1 %29, label %30, label %33

30:                                               ; preds = %24
  %31 = load ptr, ptr %4, align 8, !tbaa !4
  %32 = load ptr, ptr %5, align 8, !tbaa !9
  call void @lxb_html_tree_parse_error(ptr noundef %31, ptr noundef %32, i32 noundef 1)
  store i1 true, ptr %3, align 1
  store i32 1, ptr %8, align 4
  br label %67

33:                                               ; preds = %24
  %34 = load ptr, ptr %4, align 8, !tbaa !4
  call void @lxb_html_tree_generate_implied_end_tags(ptr noundef %34, i64 noundef 0, i64 noundef 0)
  %35 = load ptr, ptr %4, align 8, !tbaa !4
  %36 = call ptr @lxb_html_tree_current_node(ptr noundef %35)
  store ptr %36, ptr %7, align 8, !tbaa !37
  %37 = load ptr, ptr %7, align 8, !tbaa !37
  %38 = load ptr, ptr %6, align 8, !tbaa !37
  %39 = icmp ne ptr %37, %38
  br i1 %39, label %40, label %43

40:                                               ; preds = %33
  %41 = load ptr, ptr %4, align 8, !tbaa !4
  %42 = load ptr, ptr %5, align 8, !tbaa !9
  call void @lxb_html_tree_parse_error(ptr noundef %41, ptr noundef %42, i32 noundef 22)
  br label %43

43:                                               ; preds = %40, %33
  %44 = load ptr, ptr %4, align 8, !tbaa !4
  %45 = load ptr, ptr %6, align 8, !tbaa !37
  call void @lxb_html_tree_open_elements_remove_by_node(ptr noundef %44, ptr noundef %45)
  store i1 true, ptr %3, align 1
  store i32 1, ptr %8, align 4
  br label %67

46:                                               ; preds = %2
  %47 = load ptr, ptr %4, align 8, !tbaa !4
  %48 = call ptr @lxb_html_tree_element_in_scope(ptr noundef %47, i64 noundef 87, i64 noundef 2, i32 noundef 8)
  store ptr %48, ptr %6, align 8, !tbaa !37
  %49 = load ptr, ptr %6, align 8, !tbaa !37
  %50 = icmp eq ptr %49, null
  br i1 %50, label %51, label %54

51:                                               ; preds = %46
  %52 = load ptr, ptr %4, align 8, !tbaa !4
  %53 = load ptr, ptr %5, align 8, !tbaa !9
  call void @lxb_html_tree_parse_error(ptr noundef %52, ptr noundef %53, i32 noundef 1)
  store i1 true, ptr %3, align 1
  store i32 1, ptr %8, align 4
  br label %67

54:                                               ; preds = %46
  %55 = load ptr, ptr %4, align 8, !tbaa !4
  call void @lxb_html_tree_generate_implied_end_tags(ptr noundef %55, i64 noundef 0, i64 noundef 0)
  %56 = load ptr, ptr %4, align 8, !tbaa !4
  %57 = call ptr @lxb_html_tree_current_node(ptr noundef %56)
  store ptr %57, ptr %6, align 8, !tbaa !37
  %58 = load ptr, ptr %6, align 8, !tbaa !37
  %59 = call zeroext i1 @lxb_html_tree_node_is(ptr noundef %58, i64 noundef 87)
  %60 = zext i1 %59 to i32
  %61 = icmp eq i32 %60, 0
  br i1 %61, label %62, label %65

62:                                               ; preds = %54
  %63 = load ptr, ptr %4, align 8, !tbaa !4
  %64 = load ptr, ptr %5, align 8, !tbaa !9
  call void @lxb_html_tree_parse_error(ptr noundef %63, ptr noundef %64, i32 noundef 22)
  br label %65

65:                                               ; preds = %62, %54
  %66 = load ptr, ptr %4, align 8, !tbaa !4
  call void @lxb_html_tree_open_elements_pop_until_tag_id(ptr noundef %66, i64 noundef 87, i64 noundef 2, i1 noundef zeroext true)
  store i1 true, ptr %3, align 1
  store i32 1, ptr %8, align 4
  br label %67

67:                                               ; preds = %65, %51, %43, %30, %21
  call void @llvm.lifetime.end.p0(i64 8, ptr %7) #5
  call void @llvm.lifetime.end.p0(i64 8, ptr %6) #5
  %68 = load i1, ptr %3, align 1
  ret i1 %68
}